target datalayout = "e-m:e-p270:32:32-p271:32:32-p272:64:64-i64:64-i128:128-f80:128-n8:16:32:64-S128"
target triple = "x86_64-pc-linux-gnu"

%struct.luaL_Strbuf = type { ptr, ptr, ptr, ptr, [512 x i8] }

@.str.13 = private unnamed_addr constant [19 x i8] c"value out of range\00", align 1

; Function Attrs: mustprogress nounwind uwtable
define internal noundef i32 @_ZL12luaO_utf8escPcm(ptr noundef %0, i64 noundef %1) #3 {
  %3 = alloca ptr, align 8
  %4 = alloca i64, align 8
  %5 = alloca i32, align 4
  %6 = alloca i32, align 4
  store ptr %0, ptr %3, align 8, !tbaa !9
  store i64 %1, ptr %4, align 8, !tbaa !13
  call void @llvm.lifetime.start.p0(i64 4, ptr %5) #5
  store i32 1, ptr %5, align 4, !tbaa !11
  %7 = load i64, ptr %4, align 8, !tbaa !13
  %8 = icmp ult i64 %7, 128
  br i1 %8, label %9, label %14

9:                                                ; preds = %2
  %10 = load i64, ptr %4, align 8, !tbaa !13
  %11 = trunc i64 %10 to i8
  %12 = load ptr, ptr %3, align 8, !tbaa !9
  %13 = getelementptr inbounds i8, ptr %12, i64 7
  store i8 %11, ptr %13, align 1, !tbaa !15
  br label %48

14:                                               ; preds = %2
  call void @llvm.lifetime.start.p0(i64 4, ptr %6) #5
  store i32 63, ptr %6, align 4, !tbaa !11
  br label %15

15:                                               ; preds = %30, %14
  %16 = load i64, ptr %4, align 8, !tbaa !13
  %17 = and i64 %16, 63
  %18 = or i64 128, %17
  %19 = trunc i64 %18 to i8
  %20 = load ptr, ptr %3, align 8, !tbaa !9
  %21 = load i32, ptr %5, align 4, !tbaa !11
  %22 = add nsw i32 %21, 1
  store i32 %22, ptr %5, align 4, !tbaa !11
  %23 = sub nsw i32 8, %21
  %24 = sext i32 %23 to i64
  %25 = getelementptr inbounds i8, ptr %20, i64 %24
  store i8 %19, ptr %25, align 1, !tbaa !15
  %26 = load i64, ptr %4, align 8, !tbaa !13
  %27 = lshr i64 %26, 6
  store i64 %27, ptr %4, align 8, !tbaa !13
  %28 = load i32, ptr %6, align 4, !tbaa !11
  %29 = lshr i32 %28, 1
  store i32 %29, ptr %6, align 4, !tbaa !11
  br label %30

30:                                               ; preds = %15
  %31 = load i64, ptr %4, align 8, !tbaa !13
  %32 = load i32, ptr %6, align 4, !tbaa !11
  %33 = zext i32 %32 to i64
  %34 = icmp ugt i64 %31, %33
  br i1 %34, label %15, label %35, !llvm.loop !31

35:                                               ; preds = %30
  %36 = load i32, ptr %6, align 4, !tbaa !11
  %37 = xor i32 %36, -1
  %38 = shl i32 %37, 1
  %39 = zext i32 %38 to i64
  %40 = load i64, ptr %4, align 8, !tbaa !13
  %41 = or i64 %39, %40
  %42 = trunc i64 %41 to i8
  %43 = load ptr, ptr %3, align 8, !tbaa !9
  %44 = load i32, ptr %5, align 4, !tbaa !11
  %45 = sub nsw i32 8, %44
  %46 = sext i32 %45 to i64
  %47 = getelementptr inbounds i8, ptr %43, i64 %46
  store i8 %42, ptr %47, align 1, !tbaa !15
  call void @llvm.lifetime.end.p0(i64 4, ptr %6) #5
  br label %48

48:                                               ; preds = %35, %9
  %49 = load i32, ptr %5, align 4, !tbaa !11
  call void @llvm.lifetime.end.p0(i64 4, ptr %5) #5
  ret i32 %49
}

; Function Attrs: mustprogress uwtable
define internal noundef i32 @_ZL11buffutfcharP9lua_StateiPcPPKc(ptr noundef %0, i32 noundef %1, ptr noundef %2, ptr noundef %3) #0 {
  %5 = alloca ptr, align 8
  %6 = alloca i32, align 4
  %7 = alloca ptr, align 8
  %8 = alloca ptr, align 8
  %9 = alloca i32, align 4
  %10 = alloca i32, align 4
  store ptr %0, ptr %5, align 8, !tbaa !4
  store i32 %1, ptr %6, align 4, !tbaa !11
  store ptr %2, ptr %7, align 8, !tbaa !9
  store ptr %3, ptr %8, align 8, !tbaa !28
  call void @llvm.lifetime.start.p0(i64 4, ptr %9) #5
  %11 = load ptr, ptr %5, align 8, !tbaa !4
  %12 = load i32, ptr %6, align 4, !tbaa !11
  %13 = call noundef i32 @_Z17luaL_checkintegerP9lua_Statei(ptr noundef %11, i32 noundef %12)
  store i32 %13, ptr %9, align 4, !tbaa !11
  %14 = load i32, ptr %9, align 4, !tbaa !11
  %15 = icmp sle i32 0, %14
  br i1 %15, label %16, label %20

16:                                               ; preds = %4
  %17 = load i32, ptr %9, align 4, !tbaa !11
  %18 = icmp sle i32 %17, 1114111
  br i1 %18, label %19, label %20

19:                                               ; preds = %16
  br label %24

20:                                               ; preds = %16, %4
  %21 = load ptr, ptr %5, align 8, !tbaa !4
  %22 = load i32, ptr %6, align 4, !tbaa !11
  call void @_Z14luaL_argerrorLP9lua_StateiPKc(ptr noundef %21, i32 noundef %22, ptr noundef @.str.13) #6
  unreachable

23:                                               ; No predecessors!
  br label %24

24:                                               ; preds = %23, %19
  call void @llvm.lifetime.start.p0(i64 4, ptr %10) #5
  %25 = load ptr, ptr %7, align 8, !tbaa !9
  %26 = load i32, ptr %9, align 4, !tbaa !11
  %27 = sext i32 %26 to i64
  %28 = call noundef i32 @_ZL12luaO_utf8escPcm(ptr noundef %25, i64 noundef %27)
  store i32 %28, ptr %10, align 4, !tbaa !11
  %29 = load ptr, ptr %7, align 8, !tbaa !9
  %30 = getelementptr inbounds i8, ptr %29, i64 8
  %31 = load i32, ptr %10, align 4, !tbaa !11
  %32 = sext i32 %31 to i64
  %33 = sub i64 0, %32
  %34 = getelementptr inbounds i8, ptr %30, i64 %33
  %35 = load ptr, ptr %8, align 8, !tbaa !28
  store ptr %34, ptr %35, align 8, !tbaa !9
  %36 = load i32, ptr %10, align 4, !tbaa !11
  call void @llvm.lifetime.end.p0(i64 4, ptr %10) #5
  call void @llvm.lifetime.end.p0(i64 4, ptr %9) #5
  ret i32 %36
}

; Function Attrs: mustprogress uwtable
define internal noundef i32 @_ZL7utfcharP9lua_State(ptr noundef %0) #0 {
  %2 = alloca ptr, align 8
  %3 = alloca [8 x i8], align 1
  %4 = alloca ptr, align 8
  %5 = alloca i32, align 4
  %6 = alloca i32, align 4
  %7 = alloca %struct.luaL_Strbuf, align 8
  %8 = alloca i32, align 4
  %9 = alloca i32, align 4
  store ptr %0, ptr %2, align 8, !tbaa !4
  call void @llvm.lifetime.start.p0(i64 8, ptr %3) #5
  call void @llvm.lifetime.start.p0(i64 8, ptr %4) #5
  call void @llvm.lifetime.start.p0(i64 4, ptr %5) #5
  %10 = load ptr, ptr %2, align 8, !tbaa !4
  %11 = call noundef i32 @_Z10lua_gettopP9lua_State(ptr noundef %10)
  store i32 %11, ptr %5, align 4, !tbaa !11
  %12 = load i32, ptr %5, align 4, !tbaa !11
  %13 = icmp eq i32 %12, 1
  br i1 %13, label %14, label %22

14:                                               ; preds = %1
  call void @llvm.lifetime.start.p0(i64 4, ptr %6) #5
  %15 = load ptr, ptr %2, align 8, !tbaa !4
  %16 = getelementptr inbounds [8 x i8], ptr %3, i64 0, i64 0
  %17 = call noundef i32 @_ZL11buffutfcharP9lua_StateiPcPPKc(ptr noundef %15, i32 noundef 1, ptr noundef %16, ptr noundef %4)
  store i32 %17, ptr %6, align 4, !tbaa !11
  %18 = load ptr, ptr %2, align 8, !tbaa !4
  %19 = load ptr, ptr %4, align 8, !tbaa !9
  %20 = load i32, ptr %6, align 4, !tbaa !11
  %21 = sext i32 %20 to i64
  call void @_Z15lua_pushlstringP9lua_StatePKcm(ptr noundef %18, ptr noundef %19, i64 noundef %21)
  call void @llvm.lifetime.end.p0(i64 4, ptr %6) #5
  br label %41

22:                                               ; preds = %1
  call void @llvm.lifetime.start.p0(i64 544, ptr %7) #5
  %23 = load ptr, ptr %2, align 8, !tbaa !4
  call void @_Z13luaL_buffinitP9lua_StateP11luaL_Strbuf(ptr noundef %23, ptr noundef %7)
  call void @llvm.lifetime.start.p0(i64 4, ptr %8) #5
  store i32 1, ptr %8, align 4, !tbaa !11
  br label %24

24:                                               ; preds = %37, %22
  %25 = load i32, ptr %8, align 4, !tbaa !11
  %26 = load i32, ptr %5, align 4, !tbaa !11
  %27 = icmp sle i32 %25, %26
  br i1 %27, label %29, label %28

28:                                               ; preds = %24
  call void @llvm.lifetime.end.p0(i64 4, ptr %8) #5
  br label %40

29:                                               ; preds = %24
  call void @llvm.lifetime.start.p0(i64 4, ptr %9) #5
  %30 = load ptr, ptr %2, align 8, !tbaa !4
  %31 = load i32, ptr %8, align 4, !tbaa !11
  %32 = getelementptr inbounds [8 x i8], ptr %3, i64 0, i64 0
  %33 = call noundef i32 @_ZL11buffutfcharP9lua_StateiPcPPKc(ptr noundef %30, i32 noundef %31, ptr noundef %32, ptr noundef %4)
  store i32 %33, ptr %9, align 4, !tbaa !11
  %34 = load ptr, ptr %4, align 8, !tbaa !9
  %35 = load i32, ptr %9, align 4, !tbaa !11
  %36 = sext i32 %35 to i64
  call void @_Z15luaL_addlstringP11luaL_StrbufPKcm(ptr noundef %7, ptr noundef %34, i64 noundef %36)
  call void @llvm.lifetime.end.p0(i64 4, ptr %9) #5
  br label %37

37:                                               ; preds = %29
  %38 = load i32, ptr %8, align 4, !tbaa !11
  %39 = add nsw i32 %38, 1
  store i32 %39, ptr %8, align 4, !tbaa !11
  br label %24, !llvm.loop !23

40:                                               ; preds = %28
  call void @_Z15luaL_pushresultP11luaL_Strbuf(ptr noundef %7)
  call void @llvm.lifetime.end.p0(i64 544, ptr %7) #5
  br label %41

41:                                               ; preds = %40, %14
  call void @llvm.lifetime.end.p0(i64 4, ptr %5) #5
  call void @llvm.lifetime.end.p0(i64 8, ptr %4) #5
  call void @llvm.lifetime.end.p0(i64 8, ptr %3) #5
  ret i32 1
}