; Function Attrs: mustprogress uwtable
define internal noundef i32 @_ZL7utfcharP9lua_State(ptr noundef %0) #0 {
  %2 = alloca [8 x i8], align 1
  %3 = alloca %struct.luaL_Strbuf, align 8
  call void @llvm.lifetime.start.p0(i64 8, ptr nonnull %2) #4
  %4 = tail call noundef i32 @_Z10lua_gettopP9lua_State(ptr noundef %0)
  %5 = icmp eq i32 %4, 1
  br i1 %5, label %6, label %33

6:                                                ; preds = %1
  %7 = tail call noundef i32 @_Z17luaL_checkintegerP9lua_Statei(ptr noundef %0, i32 noundef 1)
  %or.cond.i = icmp ult i32 %7, 1114112
  br i1 %or.cond.i, label %9, label %8

8:                                                ; preds = %6
  tail call void @_Z14luaL_argerrorLP9lua_StateiPKc(ptr noundef %0, i32 noundef 1, ptr noundef nonnull @.str.13) #5
  unreachable

9:                                                ; preds = %6
  %10 = zext nneg i32 %7 to i64
  %11 = icmp samesign ult i32 %7, 128
  br i1 %11, label %_ZL11buffutfcharP9lua_StateiPcPPKc.exit, label %.preheader.i.i

.preheader.i.i:                                   ; preds = %9, %.preheader.i.i
  %indvars.iv.i.i = phi i64 [ %indvars.iv.next.i.i, %.preheader.i.i ], [ 1, %9 ]
  %.015.i.i = phi i64 [ %17, %.preheader.i.i ], [ %10, %9 ]
  %.0.i.i = phi i32 [ %18, %.preheader.i.i ], [ 63, %9 ]
  %12 = trunc i64 %.015.i.i to i8
  %13 = and i8 %12, 63
  %14 = or disjoint i8 %13, -128
  %indvars.iv.next.i.i = add nuw nsw i64 %indvars.iv.i.i, 1
  %15 = sub nsw i64 8, %indvars.iv.i.i
  %16 = getelementptr inbounds i8, ptr %2, i64 %15
  store i8 %14, ptr %16, align 1, !tbaa !8
  %17 = lshr i64 %.015.i.i, 6
  %18 = lshr i32 %.0.i.i, 1
  %19 = zext nneg i32 %18 to i64
  %20 = icmp samesign ugt i64 %17, %19
  br i1 %20, label %.preheader.i.i, label %21, !llvm.loop !19

21:                                               ; preds = %.preheader.i.i
  %22 = xor i32 %18, -1
  %23 = shl nsw i32 %22, 1
  %24 = zext i32 %23 to i64
  %25 = or i64 %17, %24
  %26 = shl i64 %indvars.iv.i.i, 32
  %sext.i.i = sub i64 30064771072, %26
  %27 = ashr exact i64 %sext.i.i, 32
  %sext25 = shl i64 %indvars.iv.next.i.i, 32
  %28 = ashr exact i64 %sext25, 32
  br label %_ZL11buffutfcharP9lua_StateiPcPPKc.exit

_ZL11buffutfcharP9lua_StateiPcPPKc.exit:          ; preds = %9, %21
  %.sink26.i.i = phi i64 [ %27, %21 ], [ 7, %9 ]
  %.sink.in.i.i = phi i64 [ %25, %21 ], [ %10, %9 ]
  %.014.i.i = phi i64 [ %28, %21 ], [ 1, %9 ]
  %.sink.i.i = trunc i64 %.sink.in.i.i to i8
  %29 = getelementptr inbounds i8, ptr %2, i64 %.sink26.i.i
  store i8 %.sink.i.i, ptr %29, align 1, !tbaa !8
  %30 = getelementptr inbounds nuw i8, ptr %2, i64 8
  %31 = sub nsw i64 0, %.014.i.i
  %32 = getelementptr inbounds i8, ptr %30, i64 %31
  call void @_Z15lua_pushlstringP9lua_StatePKcm(ptr noundef %0, ptr noundef nonnull %32, i64 noundef %.014.i.i)
  br label %62

33:                                               ; preds = %1
  call void @llvm.lifetime.start.p0(i64 544, ptr nonnull %3) #4
  call void @_Z13luaL_buffinitP9lua_StateP11luaL_Strbuf(ptr noundef %0, ptr noundef nonnull %3)
  %.not30 = icmp slt i32 %4, 1
  br i1 %.not30, label %._crit_edge, label %.lr.ph

.lr.ph:                                           ; preds = %33
  %34 = getelementptr inbounds nuw i8, ptr %2, i64 8
  br label %35

._crit_edge:                                      ; preds = %_ZL11buffutfcharP9lua_StateiPcPPKc.exit23, %33
  call void @_Z15luaL_pushresultP11luaL_Strbuf(ptr noundef nonnull %3)
  call void @llvm.lifetime.end.p0(i64 544, ptr nonnull %3) #4
  br label %62

35:                                               ; preds = %.lr.ph, %_ZL11buffutfcharP9lua_StateiPcPPKc.exit23
  %.031 = phi i32 [ 1, %.lr.ph ], [ %61, %_ZL11buffutfcharP9lua_StateiPcPPKc.exit23 ]
  %36 = call noundef i32 @_Z17luaL_checkintegerP9lua_Statei(ptr noundef %0, i32 noundef %.031)
  %or.cond.i12 = icmp ult i32 %36, 1114112
  br i1 %or.cond.i12, label %38, label %37

37:                                               ; preds = %35
  call void @_Z14luaL_argerrorLP9lua_StateiPKc(ptr noundef %0, i32 noundef %.031, ptr noundef nonnull @.str.13) #5
  unreachable

38:                                               ; preds = %35
  %39 = zext nneg i32 %36 to i64
  %40 = icmp samesign ult i32 %36, 128
  br i1 %40, label %_ZL11buffutfcharP9lua_StateiPcPPKc.exit23, label %.preheader.i.i13

.preheader.i.i13:                                 ; preds = %38, %.preheader.i.i13
  %indvars.iv.i.i14 = phi i64 [ %indvars.iv.next.i.i17, %.preheader.i.i13 ], [ 1, %38 ]
  %.015.i.i15 = phi i64 [ %46, %.preheader.i.i13 ], [ %39, %38 ]
  %.0.i.i16 = phi i32 [ %47, %.preheader.i.i13 ], [ 63, %38 ]
  %41 = trunc i64 %.015.i.i15 to i8
  %42 = and i8 %41, 63
  %43 = or disjoint i8 %42, -128
  %indvars.iv.next.i.i17 = add nuw nsw i64 %indvars.iv.i.i14, 1
  %44 = sub nsw i64 8, %indvars.iv.i.i14
  %45 = getelementptr inbounds i8, ptr %2, i64 %44
  store i8 %43, ptr %45, align 1, !tbaa !8
  %46 = lshr i64 %.015.i.i15, 6
  %47 = lshr i32 %.0.i.i16, 1
  %48 = zext nneg i32 %47 to i64
  %49 = icmp samesign ugt i64 %46, %48
  br i1 %49, label %.preheader.i.i13, label %50, !llvm.loop !19

50:                                               ; preds = %.preheader.i.i13
  %51 = xor i32 %47, -1
  %52 = shl nsw i32 %51, 1
  %53 = zext i32 %52 to i64
  %54 = or i64 %46, %53
  %55 = shl i64 %indvars.iv.i.i14, 32
  %sext.i.i18 = sub i64 30064771072, %55
  %56 = ashr exact i64 %sext.i.i18, 32
  %sext = shl i64 %indvars.iv.next.i.i17, 32
  %57 = ashr exact i64 %sext, 32
  br label %_ZL11buffutfcharP9lua_StateiPcPPKc.exit23

_ZL11buffutfcharP9lua_StateiPcPPKc.exit23:        ; preds = %38, %50
  %.sink26.i.i19 = phi i64 [ %56, %50 ], [ 7, %38 ]
  %.sink.in.i.i20 = phi i64 [ %54, %50 ], [ %39, %38 ]
  %.014.i.i21 = phi i64 [ %57, %50 ], [ 1, %38 ]
  %.sink.i.i22 = trunc i64 %.sink.in.i.i20 to i8
  %58 = getelementptr inbounds i8, ptr %2, i64 %.sink26.i.i19
  store i8 %.sink.i.i22, ptr %58, align 1, !tbaa !8
  %59 = sub nsw i64 0, %.014.i.i21
  %60 = getelementptr inbounds i8, ptr %34, i64 %59
  call void @_Z15luaL_addlstringP11luaL_StrbufPKcm(ptr noundef nonnull %3, ptr noundef nonnull %60, i64 noundef %.014.i.i21)
  %61 = add nuw i32 %.031, 1
  %exitcond.not = icmp eq i32 %.031, %4
  br i1 %exitcond.not, label %._crit_edge, label %35, !llvm.loop !20

62:                                               ; preds = %._crit_edge, %_ZL11buffutfcharP9lua_StateiPcPPKc.exit
  call void @llvm.lifetime.end.p0(i64 8, ptr nonnull %2) #4
  ret i32 1
}